target datalayout = "e-m:e-p270:32:32-p271:32:32-p272:64:64-i64:64-i128:128-f80:128-n8:16:32:64-S128"
target triple = "x86_64-pc-linux-gnu"

@.str.28 = private unnamed_addr constant [8 x i8] c"fc.type\00", align 1
@.str.269 = private unnamed_addr constant [20 x i8] c"Fibre Channel Types\00", align 1
@.str.270 = private unnamed_addr constant [16 x i8] c"Unknown(0x%02x)\00", align 1

; Function Attrs: nounwind uwtable
define internal void @fcstat_init(ptr noundef %0, ptr noundef %1) #0 {
  %3 = alloca ptr, align 8
  %4 = alloca ptr, align 8
  %5 = alloca ptr, align 8
  %6 = alloca i32, align 4
  %7 = alloca ptr, align 8
  store ptr %0, ptr %3, align 8
  store ptr %1, ptr %4, align 8
  %8 = load ptr, ptr %4, align 8
  %9 = call ptr @init_srt_table(ptr noundef @.str.269, ptr noundef null, ptr noundef %8, i32 noundef 256, ptr noundef null, ptr noundef @.str.28, ptr noundef null)
  store ptr %9, ptr %5, align 8
  store i32 0, ptr %6, align 4
  br label %10

10:                                               ; preds = %20, %2
  %11 = load i32, ptr %6, align 4
  %12 = icmp ult i32 %11, 256
  br i1 %12, label %13, label %23

13:                                               ; preds = %10
  %14 = load i32, ptr %6, align 4
  %15 = call ptr @val_to_str_wmem(ptr noundef null, i32 noundef %14, ptr noundef @fc_fc4_val, ptr noundef @.str.270)
  store ptr %15, ptr %7, align 8
  %16 = load ptr, ptr %5, align 8
  %17 = load i32, ptr %6, align 4
  %18 = load ptr, ptr %7, align 8
  call void @init_srt_table_row(ptr noundef %16, i32 noundef %17, ptr noundef %18)
  %19 = load ptr, ptr %7, align 8
  call void @wmem_free(ptr noundef null, ptr noundef %19)
  br label %20

20:                                               ; preds = %13
  %21 = load i32, ptr %6, align 4
  %22 = add i32 %21, 1
  store i32 %22, ptr %6, align 4
  br label %10, !llvm.loop !4

23:                                               ; preds = %10
  ret void
}